target datalayout = "e-m:e-p270:32:32-p271:32:32-p272:64:64-i64:64-i128:128-f80:128-n8:16:32:64-S128"
target triple = "x86_64-pc-linux-gnu"

%class.btVector3 = type { [4 x float] }
%class.btReducedDeformableBody = type { %class.btSoftBody, i8, i8, float, float, [4 x i8], %class.btAlignedObjectArray.54, %class.btAlignedObjectArray.54, %class.btAlignedObjectArray.6, %class.btAlignedObjectArray.6, %class.btAlignedObjectArray.4, %class.btVector3, %class.btVector3, %class.btAlignedObjectArray.6, %class.btVector3, %class.btVector3, %class.btVector3, float, float, %class.btVector3, %class.btVector3, float, float, %class.btVector3, %class.btVector3, %class.btMatrix3x3, %class.btTransform, %class.btMatrix3x3, %class.btMatrix3x3, %class.btMatrix3x3, %class.btVector3, float, float, i32, i32, %class.btAlignedObjectArray.54, %class.btAlignedObjectArray.6, %class.btAlignedObjectArray.6, %class.btAlignedObjectArray.6, %class.btAlignedObjectArray.6, %class.btAlignedObjectArray.6, %class.btAlignedObjectArray.6, %class.btAlignedObjectArray.6, %class.btAlignedObjectArray.6, %class.btAlignedObjectArray.6, %class.btAlignedObjectArray.4, %class.btAlignedObjectArray.6, %class.btAlignedObjectArray.52, i32, [4 x i8], %class.btAlignedObjectArray.52 }
%class.btSoftBody = type { %class.btCollisionObject.base, [4 x i8], %class.btAlignedObjectArray, ptr, %"struct.btSoftBody::Config", %"struct.btSoftBody::SolverState", [4 x i8], %"struct.btSoftBody::Pose", ptr, ptr, %class.btAlignedObjectArray.8, %class.btAlignedObjectArray.10, %class.btAlignedObjectArray.12, %class.btAlignedObjectArray.14, %class.btAlignedObjectArray.16, %class.btAlignedObjectArray.18, %class.btAlignedObjectArray.20, %class.btAlignedObjectArray.22, %class.btAlignedObjectArray.22, %class.btAlignedObjectArray.24, %class.btAlignedObjectArray.26, %class.btAlignedObjectArray.28, %class.btAlignedObjectArray.30, %class.btAlignedObjectArray.32, %class.btAlignedObjectArray.34, %class.btAlignedObjectArray.32, %class.btAlignedObjectArray.36, %class.btAlignedObjectArray.38, %class.btAlignedObjectArray.40, float, [2 x %class.btVector3], i8, %struct.btDbvt, %struct.btDbvt, ptr, %struct.btDbvt, %class.btAlignedObjectArray.44, float, float, float, [4 x i8], %class.btAlignedObjectArray.4, float, float, i8, [7 x i8], %class.btAlignedObjectArray.4, %class.btAlignedObjectArray.46, %class.btAlignedObjectArray.48, %class.btAlignedObjectArray.6, i8, i8, [6 x i8], %class.btAlignedObjectArray.50, %class.btVector3, float, i8, [3 x i8], %class.btAlignedObjectArray.52 }
%class.btCollisionObject.base = type <{ ptr, %class.btTransform, %class.btTransform, %class.btVector3, %class.btVector3, %class.btVector3, i32, float, ptr, ptr, ptr, ptr, i32, i32, i32, i32, i32, float, float, float, float, float, float, float, i32, [4 x i8], ptr, i32, i32, i32, float, float, float, i32, [4 x i8], %class.btAlignedObjectArray, i32, %class.btVector3 }>
%class.btAlignedObjectArray = type <{ [4 x i8], i32, i32, [4 x i8], ptr, i8, [7 x i8] }>
%"struct.btSoftBody::Config" = type { i32, float, float, float, float, float, float, float, float, float, float, float, float, float, float, float, float, float, float, float, float, i32, i32, i32, i32, i32, %class.btAlignedObjectArray.0, %class.btAlignedObjectArray.2, %class.btAlignedObjectArray.2, float, float }
%class.btAlignedObjectArray.0 = type <{ [4 x i8], i32, i32, [4 x i8], ptr, i8, [7 x i8] }>
%class.btAlignedObjectArray.2 = type <{ [4 x i8], i32, i32, [4 x i8], ptr, i8, [7 x i8] }>
%"struct.btSoftBody::SolverState" = type { float, float, float, float, float }
%"struct.btSoftBody::Pose" = type { i8, i8, float, %class.btAlignedObjectArray.4, %class.btAlignedObjectArray.6, %class.btVector3, %class.btMatrix3x3, %class.btMatrix3x3, %class.btMatrix3x3 }
%class.btAlignedObjectArray.8 = type <{ [4 x i8], i32, i32, [4 x i8], ptr, i8, [7 x i8] }>
%class.btAlignedObjectArray.10 = type <{ [4 x i8], i32, i32, [4 x i8], ptr, i8, [7 x i8] }>
%class.btAlignedObjectArray.12 = type <{ [4 x i8], i32, i32, [4 x i8], ptr, i8, [7 x i8] }>
%class.btAlignedObjectArray.14 = type <{ [4 x i8], i32, i32, [4 x i8], ptr, i8, [7 x i8] }>
%class.btAlignedObjectArray.16 = type <{ [4 x i8], i32, i32, [4 x i8], ptr, i8, [7 x i8] }>
%class.btAlignedObjectArray.18 = type <{ [4 x i8], i32, i32, [4 x i8], ptr, i8, [7 x i8] }>
%class.btAlignedObjectArray.20 = type <{ [4 x i8], i32, i32, [4 x i8], ptr, i8, [7 x i8] }>
%class.btAlignedObjectArray.22 = type <{ [4 x i8], i32, i32, [4 x i8], ptr, i8, [7 x i8] }>
%class.btAlignedObjectArray.24 = type <{ [4 x i8], i32, i32, [4 x i8], ptr, i8, [7 x i8] }>
%class.btAlignedObjectArray.26 = type <{ [4 x i8], i32, i32, [4 x i8], ptr, i8, [7 x i8] }>
%class.btAlignedObjectArray.28 = type <{ [4 x i8], i32, i32, [4 x i8], ptr, i8, [7 x i8] }>
%class.btAlignedObjectArray.30 = type <{ [4 x i8], i32, i32, [4 x i8], ptr, i8, [7 x i8] }>
%class.btAlignedObjectArray.34 = type <{ [4 x i8], i32, i32, [4 x i8], ptr, i8, [7 x i8] }>
%class.btAlignedObjectArray.32 = type <{ [4 x i8], i32, i32, [4 x i8], ptr, i8, [7 x i8] }>
%class.btAlignedObjectArray.36 = type <{ [4 x i8], i32, i32, [4 x i8], ptr, i8, [7 x i8] }>
%class.btAlignedObjectArray.38 = type <{ [4 x i8], i32, i32, [4 x i8], ptr, i8, [7 x i8] }>
%class.btAlignedObjectArray.40 = type <{ [4 x i8], i32, i32, [4 x i8], ptr, i8, [7 x i8] }>
%struct.btDbvt = type { ptr, ptr, i32, i32, i32, [4 x i8], %class.btAlignedObjectArray.42 }
%class.btAlignedObjectArray.42 = type <{ [4 x i8], i32, i32, [4 x i8], ptr, i8, [7 x i8] }>
%class.btAlignedObjectArray.44 = type <{ [4 x i8], i32, i32, [4 x i8], ptr, i8, [7 x i8] }>
%class.btAlignedObjectArray.46 = type <{ [4 x i8], i32, i32, [4 x i8], ptr, i8, [7 x i8] }>
%class.btAlignedObjectArray.48 = type <{ [4 x i8], i32, i32, [4 x i8], ptr, i8, [7 x i8] }>
%class.btAlignedObjectArray.50 = type <{ [4 x i8], i32, i32, [4 x i8], ptr, i8, [7 x i8] }>
%class.btTransform = type { %class.btMatrix3x3, %class.btVector3 }
%class.btMatrix3x3 = type { [3 x %class.btVector3] }
%class.btAlignedObjectArray.54 = type <{ [4 x i8], i32, i32, [4 x i8], ptr, i8, [7 x i8] }>
%class.btAlignedObjectArray.4 = type <{ [4 x i8], i32, i32, [4 x i8], ptr, i8, [7 x i8] }>
%class.btAlignedObjectArray.6 = type <{ [4 x i8], i32, i32, [4 x i8], ptr, i8, [7 x i8] }>
%class.btAlignedObjectArray.52 = type <{ [4 x i8], i32, i32, [4 x i8], ptr, i8, [7 x i8] }>

; Function Attrs: inlinehint mustprogress nounwind uwtable
define linkonce_odr dso_local noundef nonnull align 4 dereferenceable(4) ptr @_ZNK20btAlignedObjectArrayIfEixEi(ptr noundef nonnull align 8 dereferenceable(25) %0, i32 noundef %1) #3 comdat align 2 {
  %3 = alloca ptr, align 8
  %4 = alloca i32, align 4
  store ptr %0, ptr %3, align 8, !tbaa !140
  store i32 %1, ptr %4, align 4, !tbaa !9
  %5 = load ptr, ptr %3, align 8
  %6 = getelementptr inbounds nuw %class.btAlignedObjectArray.6, ptr %5, i32 0, i32 4
  %7 = load ptr, ptr %6, align 8, !tbaa !151
  %8 = load i32, ptr %4, align 4, !tbaa !9
  %9 = sext i32 %8 to i64
  %10 = getelementptr inbounds float, ptr %7, i64 %9
  ret ptr %10
}

; Function Attrs: inlinehint mustprogress nounwind uwtable
define linkonce_odr dso_local noundef nonnull align 4 dereferenceable(4) ptr @_ZN20btAlignedObjectArrayIfEixEi(ptr noundef nonnull align 8 dereferenceable(25) %0, i32 noundef %1) #3 comdat align 2 {
  %3 = alloca ptr, align 8
  %4 = alloca i32, align 4
  store ptr %0, ptr %3, align 8, !tbaa !140
  store i32 %1, ptr %4, align 4, !tbaa !9
  %5 = load ptr, ptr %3, align 8
  %6 = getelementptr inbounds nuw %class.btAlignedObjectArray.6, ptr %5, i32 0, i32 4
  %7 = load ptr, ptr %6, align 8, !tbaa !151
  %8 = load i32, ptr %4, align 4, !tbaa !9
  %9 = sext i32 %8 to i64
  %10 = getelementptr inbounds float, ptr %7, i64 %9
  ret ptr %10
}

; Function Attrs: mustprogress uwtable
define dso_local void @_ZN23btReducedDeformableBody24applyReducedDampingForceERK20btAlignedObjectArrayIfE(ptr noundef nonnull align 8 dereferenceable(3176) %0, ptr noundef nonnull align 8 dereferenceable(25) %1) #7 align 2 {
  %3 = alloca ptr, align 8
  %4 = alloca ptr, align 8
  %5 = alloca i32, align 4
  store ptr %0, ptr %3, align 8, !tbaa !18
  store ptr %1, ptr %4, align 8, !tbaa !140
  %6 = load ptr, ptr %3, align 8
  call void @llvm.lifetime.start.p0(i64 4, ptr %5) #6
  store i32 0, ptr %5, align 4, !tbaa !9
  br label %7

7:                                                ; preds = %33, %2
  %8 = load i32, ptr %5, align 4, !tbaa !9
  %9 = getelementptr inbounds nuw %class.btReducedDeformableBody, ptr %6, i32 0, i32 33
  %10 = load i32, ptr %9, align 8, !tbaa !126
  %11 = icmp slt i32 %8, %10
  br i1 %11, label %13, label %12

12:                                               ; preds = %7
  call void @llvm.lifetime.end.p0(i64 4, ptr %5) #6
  br label %36

13:                                               ; preds = %7
  %14 = getelementptr inbounds nuw %class.btReducedDeformableBody, ptr %6, i32 0, i32 32
  %15 = load float, ptr %14, align 4, !tbaa !137
  %16 = fneg float %15
  %17 = getelementptr inbounds nuw %class.btReducedDeformableBody, ptr %6, i32 0, i32 4
  %18 = load float, ptr %17, align 8, !tbaa !130
  %19 = fmul float %16, %18
  %20 = getelementptr inbounds nuw %class.btReducedDeformableBody, ptr %6, i32 0, i32 44
  %21 = load i32, ptr %5, align 4, !tbaa !9
  %22 = call noundef nonnull align 4 dereferenceable(4) ptr @_ZN20btAlignedObjectArrayIfEixEi(ptr noundef nonnull align 8 dereferenceable(25) %20, i32 noundef %21)
  %23 = load float, ptr %22, align 4, !tbaa !12
  %24 = fmul float %19, %23
  %25 = load ptr, ptr %4, align 8, !tbaa !140
  %26 = load i32, ptr %5, align 4, !tbaa !9
  %27 = call noundef nonnull align 4 dereferenceable(4) ptr @_ZNK20btAlignedObjectArrayIfEixEi(ptr noundef nonnull align 8 dereferenceable(25) %25, i32 noundef %26)
  %28 = load float, ptr %27, align 4, !tbaa !12
  %29 = fmul float %24, %28
  %30 = getelementptr inbounds nuw %class.btReducedDeformableBody, ptr %6, i32 0, i32 42
  %31 = load i32, ptr %5, align 4, !tbaa !9
  %32 = call noundef nonnull align 4 dereferenceable(4) ptr @_ZN20btAlignedObjectArrayIfEixEi(ptr noundef nonnull align 8 dereferenceable(25) %30, i32 noundef %31)
  store float %29, ptr %32, align 4, !tbaa !12
  br label %33

33:                                               ; preds = %13
  %34 = load i32, ptr %5, align 4, !tbaa !9
  %35 = add nsw i32 %34, 1
  store i32 %35, ptr %5, align 4, !tbaa !9
  br label %7, !llvm.loop !233

36:                                               ; preds = %12
  ret void
}